target datalayout = "e-m:e-p270:32:32-p271:32:32-p272:64:64-i64:64-i128:128-f80:128-n8:16:32:64-S128"
target triple = "x86_64-pc-linux-gnu"

%struct.FormData_pg_proc = type { i32, %struct.nameData, i32, i32, i32, float, float, i32, i32, i8, i8, i8, i8, i8, i8, i8, i16, i16, i32, %struct.oidvector }
%struct.nameData = type { [64 x i8] }
%struct.oidvector = type { i32, i32, i32, i32, i32, i32, [0 x i32] }
%struct.HeapTupleHeaderData = type { %union.anon, %struct.ItemPointerData, i16, i16, i8, [0 x i8] }
%union.anon = type { %struct.HeapTupleFields }
%struct.HeapTupleFields = type { i32, i32, %union.anon.0 }
%union.anon.0 = type { i32 }
%struct.ItemPointerData = type { %struct.BlockIdData, i16 }
%struct.BlockIdData = type { i16, i16 }
%struct.HeapTupleData = type { i32, %struct.ItemPointerData, i32, ptr }

; Function Attrs: inlinehint nounwind uwtable
define internal i64 @PointerGetDatum(ptr noundef %0) #4 {
  %2 = alloca ptr, align 8
  store ptr %0, ptr %2, align 8
  %3 = load ptr, ptr %2, align 8
  %4 = ptrtoint ptr %3 to i64
  ret i64 %4
}

; Function Attrs: inlinehint nounwind uwtable
define internal ptr @GETSTRUCT(ptr noundef %0) #4 {
  %2 = alloca ptr, align 8
  store ptr %0, ptr %2, align 8
  %3 = load ptr, ptr %2, align 8
  %4 = getelementptr inbounds nuw %struct.HeapTupleData, ptr %3, i32 0, i32 3
  %5 = load ptr, ptr %4, align 8
  %6 = load ptr, ptr %2, align 8
  %7 = getelementptr inbounds nuw %struct.HeapTupleData, ptr %6, i32 0, i32 3
  %8 = load ptr, ptr %7, align 8
  %9 = getelementptr inbounds nuw %struct.HeapTupleHeaderData, ptr %8, i32 0, i32 4
  %10 = load i8, ptr %9, align 2
  %11 = zext i8 %10 to i32
  %12 = sext i32 %11 to i64
  %13 = getelementptr inbounds i8, ptr %5, i64 %12
  ret ptr %13
}

; Function Attrs: nounwind uwtable
define dso_local ptr @build_function_result_tupdesc_t(ptr noundef %0) #0 {
  %2 = alloca ptr, align 8
  %3 = alloca ptr, align 8
  %4 = alloca ptr, align 8
  %5 = alloca i64, align 8
  %6 = alloca i64, align 8
  %7 = alloca i64, align 8
  %8 = alloca i8, align 1
  %9 = alloca i32, align 4
  store ptr %0, ptr %3, align 8
  call void @llvm.lifetime.start.p0(i64 8, ptr %4) #7
  %10 = load ptr, ptr %3, align 8
  %11 = call ptr @GETSTRUCT(ptr noundef %10)
  store ptr %11, ptr %4, align 8
  call void @llvm.lifetime.start.p0(i64 8, ptr %5) #7
  call void @llvm.lifetime.start.p0(i64 8, ptr %6) #7
  call void @llvm.lifetime.start.p0(i64 8, ptr %7) #7
  call void @llvm.lifetime.start.p0(i64 1, ptr %8) #7
  %12 = load ptr, ptr %4, align 8
  %13 = getelementptr inbounds nuw %struct.FormData_pg_proc, ptr %12, i32 0, i32 18
  %14 = load i32, ptr %13, align 4
  %15 = icmp ne i32 %14, 2249
  br i1 %15, label %16, label %17

16:                                               ; preds = %1
  store ptr null, ptr %2, align 8
  store i32 1, ptr %9, align 4
  br label %43

17:                                               ; preds = %1
  %18 = load ptr, ptr %3, align 8
  %19 = call zeroext i1 @heap_attisnull(ptr noundef %18, i32 noundef 21, ptr noundef null)
  br i1 %19, label %23, label %20

20:                                               ; preds = %17
  %21 = load ptr, ptr %3, align 8
  %22 = call zeroext i1 @heap_attisnull(ptr noundef %21, i32 noundef 22, ptr noundef null)
  br i1 %22, label %23, label %24

23:                                               ; preds = %20, %17
  store ptr null, ptr %2, align 8
  store i32 1, ptr %9, align 4
  br label %43

24:                                               ; preds = %20
  %25 = load ptr, ptr %3, align 8
  %26 = call i64 @SysCacheGetAttrNotNull(i32 noundef 47, ptr noundef %25, i16 noundef signext 21)
  store i64 %26, ptr %5, align 8
  %27 = load ptr, ptr %3, align 8
  %28 = call i64 @SysCacheGetAttrNotNull(i32 noundef 47, ptr noundef %27, i16 noundef signext 22)
  store i64 %28, ptr %6, align 8
  %29 = load ptr, ptr %3, align 8
  %30 = call i64 @SysCacheGetAttr(i32 noundef 47, ptr noundef %29, i16 noundef signext 23, ptr noundef %8)
  store i64 %30, ptr %7, align 8
  %31 = load i8, ptr %8, align 1, !range !4, !noundef !5
  %32 = trunc i8 %31 to i1
  br i1 %32, label %33, label %35

33:                                               ; preds = %24
  %34 = call i64 @PointerGetDatum(ptr noundef null)
  store i64 %34, ptr %7, align 8
  br label %35

35:                                               ; preds = %33, %24
  %36 = load ptr, ptr %4, align 8
  %37 = getelementptr inbounds nuw %struct.FormData_pg_proc, ptr %36, i32 0, i32 9
  %38 = load i8, ptr %37, align 4
  %39 = load i64, ptr %5, align 8
  %40 = load i64, ptr %6, align 8
  %41 = load i64, ptr %7, align 8
  %42 = call ptr @build_function_result_tupdesc_d(i8 noundef signext %38, i64 noundef %39, i64 noundef %40, i64 noundef %41)
  store ptr %42, ptr %2, align 8
  store i32 1, ptr %9, align 4
  br label %43

43:                                               ; preds = %35, %23, %16
  call void @llvm.lifetime.end.p0(i64 1, ptr %8) #7
  call void @llvm.lifetime.end.p0(i64 8, ptr %7) #7
  call void @llvm.lifetime.end.p0(i64 8, ptr %6) #7
  call void @llvm.lifetime.end.p0(i64 8, ptr %5) #7
  call void @llvm.lifetime.end.p0(i64 8, ptr %4) #7
  %44 = load ptr, ptr %2, align 8
  ret ptr %44
}