; Function Attrs: nounwind uwtable
define dso_local ptr @build_function_result_tupdesc_t(ptr noundef %0) local_unnamed_addr #0 {
  %2 = alloca i8, align 1
  %3 = getelementptr i8, ptr %0, i64 16
  %.val = load ptr, ptr %3, align 8
  %4 = getelementptr inbounds nuw i8, ptr %.val, i64 22
  %5 = load i8, ptr %4, align 2
  %6 = zext i8 %5 to i64
  %7 = getelementptr inbounds nuw i8, ptr %.val, i64 %6
  call void @llvm.lifetime.start.p0(i64 1, ptr nonnull %2) #8
  %8 = getelementptr inbounds nuw i8, ptr %7, i64 108
  %9 = load i32, ptr %8, align 4
  %.not = icmp eq i32 %9, 2249
  br i1 %.not, label %10, label %23

10:                                               ; preds = %1
  %11 = tail call zeroext i1 @heap_attisnull(ptr noundef nonnull %0, i32 noundef 21, ptr noundef null) #8
  br i1 %11, label %23, label %12

12:                                               ; preds = %10
  %13 = tail call zeroext i1 @heap_attisnull(ptr noundef nonnull %0, i32 noundef 22, ptr noundef null) #8
  br i1 %13, label %23, label %14

14:                                               ; preds = %12
  %15 = tail call i64 @SysCacheGetAttrNotNull(i32 noundef 47, ptr noundef nonnull %0, i16 noundef signext 21) #8
  %16 = tail call i64 @SysCacheGetAttrNotNull(i32 noundef 47, ptr noundef nonnull %0, i16 noundef signext 22) #8
  %17 = call i64 @SysCacheGetAttr(i32 noundef 47, ptr noundef nonnull %0, i16 noundef signext 23, ptr noundef nonnull %2) #8
  %18 = load i8, ptr %2, align 1, !range !9, !noundef !10
  %19 = trunc nuw i8 %18 to i1
  %spec.select = select i1 %19, i64 0, i64 %17
  %20 = getelementptr inbounds nuw i8, ptr %7, i64 96
  %21 = load i8, ptr %20, align 4
  %22 = call ptr @build_function_result_tupdesc_d(i8 noundef signext %21, i64 noundef %15, i64 noundef %16, i64 noundef %spec.select)
  br label %23

23:                                               ; preds = %10, %12, %1, %14
  %.011 = phi ptr [ %22, %14 ], [ null, %1 ], [ null, %12 ], [ null, %10 ]
  call void @llvm.lifetime.end.p0(i64 1, ptr nonnull %2) #8
  ret ptr %.011
}